target datalayout = "e-m:e-p270:32:32-p271:32:32-p272:64:64-i64:64-i128:128-f80:128-n8:16:32:64-S128"
target triple = "x86_64-pc-linux-gnu"

%struct.CF2_HintRec_ = type { i32, i64, i32, i32, i32 }
%struct.CF2_HintMapRec_ = type { ptr, ptr, ptr, i8, i8, i32, i32, i32, [192 x %struct.CF2_HintRec_] }

; Function Attrs: nounwind uwtable
define internal i32 @FT_MulFix_x86_64(i32 noundef %0, i32 noundef %1) #0 {
  %3 = alloca i32, align 4
  %4 = alloca i32, align 4
  %5 = alloca i64, align 8
  %6 = alloca i64, align 8
  store i32 %0, ptr %3, align 4
  store i32 %1, ptr %4, align 4
  %7 = load i32, ptr %3, align 4
  %8 = sext i32 %7 to i64
  %9 = load i32, ptr %4, align 4
  %10 = sext i32 %9 to i64
  %11 = mul nsw i64 %8, %10
  store i64 %11, ptr %5, align 8
  %12 = load i64, ptr %5, align 8
  %13 = ashr i64 %12, 63
  store i64 %13, ptr %6, align 8
  %14 = load i64, ptr %6, align 8
  %15 = add nsw i64 32768, %14
  %16 = load i64, ptr %5, align 8
  %17 = add nsw i64 %16, %15
  store i64 %17, ptr %5, align 8
  %18 = load i64, ptr %5, align 8
  %19 = ashr i64 %18, 16
  %20 = trunc i64 %19 to i32
  ret i32 %20
}

; Function Attrs: nounwind uwtable
define internal i32 @cf2_hintmap_map(ptr noundef %0, i32 noundef %1) #0 {
  %3 = alloca i32, align 4
  %4 = alloca ptr, align 8
  %5 = alloca i32, align 4
  %6 = alloca i32, align 4
  store ptr %0, ptr %4, align 8
  store i32 %1, ptr %5, align 4
  %7 = load ptr, ptr %4, align 8
  %8 = getelementptr inbounds %struct.CF2_HintMapRec_, ptr %7, i32 0, i32 6
  %9 = load i32, ptr %8, align 8
  %10 = icmp eq i32 %9, 0
  br i1 %10, label %16, label %11

11:                                               ; preds = %2
  %12 = load ptr, ptr %4, align 8
  %13 = getelementptr inbounds %struct.CF2_HintMapRec_, ptr %12, i32 0, i32 4
  %14 = load i8, ptr %13, align 1
  %15 = icmp ne i8 %14, 0
  br i1 %15, label %22, label %16

16:                                               ; preds = %11, %2
  %17 = load i32, ptr %5, align 4
  %18 = load ptr, ptr %4, align 8
  %19 = getelementptr inbounds %struct.CF2_HintMapRec_, ptr %18, i32 0, i32 5
  %20 = load i32, ptr %19, align 4
  %21 = call i32 @FT_MulFix_x86_64(i32 noundef %17, i32 noundef %20)
  store i32 %21, ptr %3, align 4
  br label %128

22:                                               ; preds = %11
  %23 = load ptr, ptr %4, align 8
  %24 = getelementptr inbounds %struct.CF2_HintMapRec_, ptr %23, i32 0, i32 7
  %25 = load i32, ptr %24, align 4
  store i32 %25, ptr %6, align 4
  br label %26

26:                                               ; preds = %22
  br label %27

27:                                               ; preds = %26
  br label %28

28:                                               ; preds = %48, %27
  %29 = load i32, ptr %6, align 4
  %30 = load ptr, ptr %4, align 8
  %31 = getelementptr inbounds %struct.CF2_HintMapRec_, ptr %30, i32 0, i32 6
  %32 = load i32, ptr %31, align 8
  %33 = sub i32 %32, 1
  %34 = icmp ult i32 %29, %33
  br i1 %34, label %35, label %46

35:                                               ; preds = %28
  %36 = load i32, ptr %5, align 4
  %37 = load ptr, ptr %4, align 8
  %38 = getelementptr inbounds %struct.CF2_HintMapRec_, ptr %37, i32 0, i32 8
  %39 = load i32, ptr %6, align 4
  %40 = add i32 %39, 1
  %41 = zext i32 %40 to i64
  %42 = getelementptr inbounds [192 x %struct.CF2_HintRec_], ptr %38, i64 0, i64 %41
  %43 = getelementptr inbounds %struct.CF2_HintRec_, ptr %42, i32 0, i32 2
  %44 = load i32, ptr %43, align 8
  %45 = icmp sge i32 %36, %44
  br label %46

46:                                               ; preds = %35, %28
  %47 = phi i1 [ false, %28 ], [ %45, %35 ]
  br i1 %47, label %48, label %51

48:                                               ; preds = %46
  %49 = load i32, ptr %6, align 4
  %50 = add i32 %49, 1
  store i32 %50, ptr %6, align 4
  br label %28, !llvm.loop !78

51:                                               ; preds = %46
  br label %52

52:                                               ; preds = %67, %51
  %53 = load i32, ptr %6, align 4
  %54 = icmp ugt i32 %53, 0
  br i1 %54, label %55, label %65

55:                                               ; preds = %52
  %56 = load i32, ptr %5, align 4
  %57 = load ptr, ptr %4, align 8
  %58 = getelementptr inbounds %struct.CF2_HintMapRec_, ptr %57, i32 0, i32 8
  %59 = load i32, ptr %6, align 4
  %60 = zext i32 %59 to i64
  %61 = getelementptr inbounds [192 x %struct.CF2_HintRec_], ptr %58, i64 0, i64 %60
  %62 = getelementptr inbounds %struct.CF2_HintRec_, ptr %61, i32 0, i32 2
  %63 = load i32, ptr %62, align 8
  %64 = icmp slt i32 %56, %63
  br label %65

65:                                               ; preds = %55, %52
  %66 = phi i1 [ false, %52 ], [ %64, %55 ]
  br i1 %66, label %67, label %70

67:                                               ; preds = %65
  %68 = load i32, ptr %6, align 4
  %69 = sub i32 %68, 1
  store i32 %69, ptr %6, align 4
  br label %52, !llvm.loop !79

70:                                               ; preds = %65
  %71 = load i32, ptr %6, align 4
  %72 = load ptr, ptr %4, align 8
  %73 = getelementptr inbounds %struct.CF2_HintMapRec_, ptr %72, i32 0, i32 7
  store i32 %71, ptr %73, align 4
  %74 = load i32, ptr %6, align 4
  %75 = icmp eq i32 %74, 0
  br i1 %75, label %76, label %102

76:                                               ; preds = %70
  %77 = load i32, ptr %5, align 4
  %78 = load ptr, ptr %4, align 8
  %79 = getelementptr inbounds %struct.CF2_HintMapRec_, ptr %78, i32 0, i32 8
  %80 = getelementptr inbounds [192 x %struct.CF2_HintRec_], ptr %79, i64 0, i64 0
  %81 = getelementptr inbounds %struct.CF2_HintRec_, ptr %80, i32 0, i32 2
  %82 = load i32, ptr %81, align 8
  %83 = icmp slt i32 %77, %82
  br i1 %83, label %84, label %102

84:                                               ; preds = %76
  %85 = load i32, ptr %5, align 4
  %86 = load ptr, ptr %4, align 8
  %87 = getelementptr inbounds %struct.CF2_HintMapRec_, ptr %86, i32 0, i32 8
  %88 = getelementptr inbounds [192 x %struct.CF2_HintRec_], ptr %87, i64 0, i64 0
  %89 = getelementptr inbounds %struct.CF2_HintRec_, ptr %88, i32 0, i32 2
  %90 = load i32, ptr %89, align 8
  %91 = sub i32 %85, %90
  %92 = load ptr, ptr %4, align 8
  %93 = getelementptr inbounds %struct.CF2_HintMapRec_, ptr %92, i32 0, i32 5
  %94 = load i32, ptr %93, align 4
  %95 = call i32 @FT_MulFix_x86_64(i32 noundef %91, i32 noundef %94)
  %96 = load ptr, ptr %4, align 8
  %97 = getelementptr inbounds %struct.CF2_HintMapRec_, ptr %96, i32 0, i32 8
  %98 = getelementptr inbounds [192 x %struct.CF2_HintRec_], ptr %97, i64 0, i64 0
  %99 = getelementptr inbounds %struct.CF2_HintRec_, ptr %98, i32 0, i32 3
  %100 = load i32, ptr %99, align 4
  %101 = add i32 %95, %100
  store i32 %101, ptr %3, align 4
  br label %128

102:                                              ; preds = %76, %70
  %103 = load i32, ptr %5, align 4
  %104 = load ptr, ptr %4, align 8
  %105 = getelementptr inbounds %struct.CF2_HintMapRec_, ptr %104, i32 0, i32 8
  %106 = load i32, ptr %6, align 4
  %107 = zext i32 %106 to i64
  %108 = getelementptr inbounds [192 x %struct.CF2_HintRec_], ptr %105, i64 0, i64 %107
  %109 = getelementptr inbounds %struct.CF2_HintRec_, ptr %108, i32 0, i32 2
  %110 = load i32, ptr %109, align 8
  %111 = sub i32 %103, %110
  %112 = load ptr, ptr %4, align 8
  %113 = getelementptr inbounds %struct.CF2_HintMapRec_, ptr %112, i32 0, i32 8
  %114 = load i32, ptr %6, align 4
  %115 = zext i32 %114 to i64
  %116 = getelementptr inbounds [192 x %struct.CF2_HintRec_], ptr %113, i64 0, i64 %115
  %117 = getelementptr inbounds %struct.CF2_HintRec_, ptr %116, i32 0, i32 4
  %118 = load i32, ptr %117, align 8
  %119 = call i32 @FT_MulFix_x86_64(i32 noundef %111, i32 noundef %118)
  %120 = load ptr, ptr %4, align 8
  %121 = getelementptr inbounds %struct.CF2_HintMapRec_, ptr %120, i32 0, i32 8
  %122 = load i32, ptr %6, align 4
  %123 = zext i32 %122 to i64
  %124 = getelementptr inbounds [192 x %struct.CF2_HintRec_], ptr %121, i64 0, i64 %123
  %125 = getelementptr inbounds %struct.CF2_HintRec_, ptr %124, i32 0, i32 3
  %126 = load i32, ptr %125, align 4
  %127 = add i32 %119, %126
  store i32 %127, ptr %3, align 4
  br label %128

128:                                              ; preds = %102, %84, %16
  %129 = load i32, ptr %3, align 4
  ret i32 %129
}