; Function Attrs: nofree norecurse nosync nounwind memory(argmem: readwrite) uwtable
define internal fastcc i32 @cf2_hintmap_map(ptr noundef captures(none) %0, i32 noundef %1) unnamed_addr #14 {
  %3 = getelementptr inbounds nuw i8, ptr %0, i64 32
  %4 = load i32, ptr %3, align 8
  %5 = icmp eq i32 %4, 0
  br i1 %5, label %9, label %6

6:                                                ; preds = %2
  %7 = getelementptr inbounds nuw i8, ptr %0, i64 25
  %8 = load i8, ptr %7, align 1
  %.not = icmp eq i8 %8, 0
  br i1 %.not, label %9, label %20

9:                                                ; preds = %6, %2
  %10 = getelementptr inbounds nuw i8, ptr %0, i64 28
  %11 = load i32, ptr %10, align 4
  %12 = sext i32 %1 to i64
  %13 = sext i32 %11 to i64
  %14 = mul nsw i64 %13, %12
  %15 = ashr i64 %14, 63
  %16 = add nsw i64 %14, 32768
  %17 = add nsw i64 %16, %15
  %18 = lshr i64 %17, 16
  %19 = trunc i64 %18 to i32
  br label %73

20:                                               ; preds = %6
  %21 = getelementptr inbounds nuw i8, ptr %0, i64 36
  %22 = load i32, ptr %21, align 4
  %23 = add i32 %4, -1
  %24 = getelementptr i8, ptr %0, i64 56
  %25 = zext i32 %22 to i64
  %umax = tail call i32 @llvm.umax.i32(i32 %22, i32 %23)
  %wide.trip.count = zext i32 %umax to i64
  br label %26

26:                                               ; preds = %27, %20
  %indvars.iv = phi i64 [ %indvars.iv.next, %27 ], [ %25, %20 ]
  %exitcond.not = icmp eq i64 %indvars.iv, %wide.trip.count
  br i1 %exitcond.not, label %.critedge, label %27

27:                                               ; preds = %26
  %indvars.iv.next = add nuw nsw i64 %indvars.iv, 1
  %.idx = shl nuw nsw i64 %indvars.iv.next, 5
  %28 = getelementptr i8, ptr %24, i64 %.idx
  %29 = load i32, ptr %28, align 8
  %.not37 = icmp slt i32 %1, %29
  br i1 %.not37, label %.critedge.split.loop.exit47, label %26, !llvm.loop !77

.critedge.split.loop.exit47:                      ; preds = %27
  %30 = trunc nuw i64 %indvars.iv to i32
  br label %.critedge

.critedge:                                        ; preds = %26, %.critedge.split.loop.exit47
  %.0.lcssa = phi i32 [ %30, %.critedge.split.loop.exit47 ], [ %umax, %26 ]
  %.not3842 = icmp eq i32 %.0.lcssa, 0
  br i1 %.not3842, label %._crit_edge, label %.lr.ph

.lr.ph:                                           ; preds = %.critedge, %35
  %.143 = phi i32 [ %36, %35 ], [ %.0.lcssa, %.critedge ]
  %31 = zext i32 %.143 to i64
  %.idx39 = shl nuw nsw i64 %31, 5
  %32 = getelementptr i8, ptr %24, i64 %.idx39
  %33 = load i32, ptr %32, align 8
  %34 = icmp slt i32 %1, %33
  br i1 %34, label %35, label %.critedge2

35:                                               ; preds = %.lr.ph
  %36 = add i32 %.143, -1
  %.not38 = icmp eq i32 %36, 0
  br i1 %.not38, label %._crit_edge, label %.lr.ph, !llvm.loop !78

.critedge2:                                       ; preds = %.lr.ph
  store i32 %.143, ptr %21, align 4
  %37 = zext i32 %.143 to i64
  br label %._crit_edge._crit_edge

._crit_edge:                                      ; preds = %35, %.critedge
  store i32 0, ptr %21, align 4
  %38 = load i32, ptr %24, align 8
  %39 = icmp slt i32 %1, %38
  br i1 %39, label %40, label %._crit_edge._crit_edge

40:                                               ; preds = %._crit_edge
  %41 = sub i32 %1, %38
  %42 = getelementptr inbounds nuw i8, ptr %0, i64 28
  %43 = load i32, ptr %42, align 4
  %44 = sext i32 %41 to i64
  %45 = sext i32 %43 to i64
  %46 = mul nsw i64 %45, %44
  %47 = ashr i64 %46, 63
  %48 = add nsw i64 %46, 32768
  %49 = add nsw i64 %48, %47
  %50 = lshr i64 %49, 16
  %51 = trunc i64 %50 to i32
  %52 = getelementptr inbounds nuw i8, ptr %0, i64 60
  %53 = load i32, ptr %52, align 4
  %54 = add i32 %53, %51
  br label %73

._crit_edge._crit_edge:                           ; preds = %._crit_edge, %.critedge2
  %.141 = phi i64 [ %37, %.critedge2 ], [ 0, %._crit_edge ]
  %55 = getelementptr inbounds nuw i8, ptr %0, i64 40
  %56 = getelementptr inbounds nuw [192 x %struct.CF2_HintRec_], ptr %55, i64 0, i64 %.141
  %57 = getelementptr inbounds nuw i8, ptr %56, i64 16
  %58 = load i32, ptr %57, align 8
  %59 = sub i32 %1, %58
  %60 = getelementptr inbounds nuw i8, ptr %56, i64 24
  %61 = load i32, ptr %60, align 8
  %62 = sext i32 %59 to i64
  %63 = sext i32 %61 to i64
  %64 = mul nsw i64 %63, %62
  %65 = ashr i64 %64, 63
  %66 = add nsw i64 %64, 32768
  %67 = add nsw i64 %66, %65
  %68 = lshr i64 %67, 16
  %69 = trunc i64 %68 to i32
  %70 = getelementptr inbounds nuw i8, ptr %56, i64 20
  %71 = load i32, ptr %70, align 4
  %72 = add i32 %71, %69
  br label %73

73:                                               ; preds = %._crit_edge._crit_edge, %40, %9
  %.034 = phi i32 [ %19, %9 ], [ %54, %40 ], [ %72, %._crit_edge._crit_edge ]
  ret i32 %.034
}